target datalayout = "e-m:e-p270:32:32-p271:32:32-p272:64:64-i64:64-i128:128-f80:128-n8:16:32:64-S128"
target triple = "x86_64-pc-linux-gnu"

; Function Attrs: nounwind uwtable
define internal i32 @H5EA__test_decode(ptr noundef %0, ptr noundef %1, i64 noundef %2, ptr noundef %3) #0 {
  %5 = alloca ptr, align 8
  %6 = alloca ptr, align 8
  %7 = alloca i64, align 8
  %8 = alloca ptr, align 8
  %9 = alloca ptr, align 8
  %10 = alloca ptr, align 8
  %11 = alloca i64, align 8
  store ptr %0, ptr %5, align 8
  store ptr %1, ptr %6, align 8
  store i64 %2, ptr %7, align 8
  store ptr %3, ptr %8, align 8
  %12 = load ptr, ptr %6, align 8
  store ptr %12, ptr %9, align 8
  %13 = load ptr, ptr %5, align 8
  store ptr %13, ptr %10, align 8
  br label %14

14:                                               ; preds = %41, %4
  %15 = load i64, ptr %7, align 8
  %16 = icmp ne i64 %15, 0
  br i1 %16, label %17, label %46

17:                                               ; preds = %14
  br label %18

18:                                               ; preds = %17
  %19 = load ptr, ptr %9, align 8
  store i64 0, ptr %19, align 8
  %20 = load ptr, ptr %10, align 8
  %21 = getelementptr inbounds i8, ptr %20, i64 8
  store ptr %21, ptr %10, align 8
  store i64 0, ptr %11, align 8
  br label %22

22:                                               ; preds = %35, %18
  %23 = load i64, ptr %11, align 8
  %24 = icmp ult i64 %23, 8
  br i1 %24, label %25, label %38

25:                                               ; preds = %22
  %26 = load ptr, ptr %9, align 8
  %27 = load i64, ptr %26, align 8
  %28 = shl i64 %27, 8
  %29 = load ptr, ptr %10, align 8
  %30 = getelementptr inbounds i8, ptr %29, i32 -1
  store ptr %30, ptr %10, align 8
  %31 = load i8, ptr %30, align 1
  %32 = zext i8 %31 to i64
  %33 = or i64 %28, %32
  %34 = load ptr, ptr %9, align 8
  store i64 %33, ptr %34, align 8
  br label %35

35:                                               ; preds = %25
  %36 = load i64, ptr %11, align 8
  %37 = add i64 %36, 1
  store i64 %37, ptr %11, align 8
  br label %22

38:                                               ; preds = %22
  %39 = load ptr, ptr %10, align 8
  %40 = getelementptr inbounds i8, ptr %39, i64 8
  store ptr %40, ptr %10, align 8
  br label %41

41:                                               ; preds = %38
  %42 = load ptr, ptr %9, align 8
  %43 = getelementptr inbounds i64, ptr %42, i32 1
  store ptr %43, ptr %9, align 8
  %44 = load i64, ptr %7, align 8
  %45 = add i64 %44, -1
  store i64 %45, ptr %7, align 8
  br label %14

46:                                               ; preds = %14
  ret i32 0
}