; Function Attrs: nofree norecurse nosync nounwind memory(argmem: readwrite) uwtable
define internal noundef i32 @H5EA__test_decode(ptr noundef readonly captures(none) %0, ptr noundef writeonly captures(none) %1, i64 noundef %2, ptr readnone captures(none) %3) #1 {
  %.not17 = icmp eq i64 %2, 0
  br i1 %.not17, label %._crit_edge, label %.lr.ph

.lr.ph:                                           ; preds = %4, %14
  %.01220 = phi ptr [ %15, %14 ], [ %0, %4 ]
  %.01319 = phi ptr [ %16, %14 ], [ %1, %4 ]
  %.01418 = phi i64 [ %17, %14 ], [ %2, %4 ]
  store i64 0, ptr %.01319, align 8
  %5 = getelementptr inbounds nuw i8, ptr %.01220, i64 8
  br label %6

6:                                                ; preds = %.lr.ph, %6
  %.016 = phi i64 [ 0, %.lr.ph ], [ %13, %6 ]
  %.115 = phi ptr [ %5, %.lr.ph ], [ %9, %6 ]
  %7 = phi i64 [ 0, %.lr.ph ], [ %12, %6 ]
  %8 = shl i64 %7, 8
  %9 = getelementptr inbounds i8, ptr %.115, i64 -1
  %10 = load i8, ptr %9, align 1
  %11 = zext i8 %10 to i64
  %12 = or disjoint i64 %8, %11
  store i64 %12, ptr %.01319, align 8
  %13 = add nuw nsw i64 %.016, 1
  %exitcond.not = icmp eq i64 %13, 8
  br i1 %exitcond.not, label %14, label %6

14:                                               ; preds = %6
  %15 = getelementptr inbounds nuw i8, ptr %.115, i64 7
  %16 = getelementptr inbounds nuw i8, ptr %.01319, i64 8
  %17 = add i64 %.01418, -1
  %.not = icmp eq i64 %17, 0
  br i1 %.not, label %._crit_edge, label %.lr.ph

._crit_edge:                                      ; preds = %14, %4
  ret i32 0
}